target datalayout = "e-m:e-p270:32:32-p271:32:32-p272:64:64-i64:64-i128:128-f80:128-n8:16:32:64-S128"
target triple = "x86_64-pc-linux-gnu"

%"class.base::FilePath" = type { %"class.std::__cxx11::basic_string" }
%"class.std::__cxx11::basic_string" = type { %"struct.std::__cxx11::basic_string<char>::_Alloc_hider", i64, %union.anon }
%"struct.std::__cxx11::basic_string<char>::_Alloc_hider" = type { ptr }
%union.anon = type { i64, [8 x i8] }
%"class.base::BasicStringPiece" = type { ptr, i64 }

; Function Attrs: mustprogress nounwind uwtable
define available_externally noundef ptr @_ZNKSt7__cxx1112basic_stringIcSt11char_traitsIcESaIcEE7_M_dataEv(ptr noundef nonnull align 8 dereferenceable(32) %0) #0 align 2 {
  %2 = alloca ptr, align 8
  store ptr %0, ptr %2, align 8, !tbaa !8
  %3 = load ptr, ptr %2, align 8
  %4 = getelementptr inbounds nuw %"class.std::__cxx11::basic_string", ptr %3, i32 0, i32 0
  %5 = getelementptr inbounds nuw %"struct.std::__cxx11::basic_string<char>::_Alloc_hider", ptr %4, i32 0, i32 0
  %6 = load ptr, ptr %5, align 8, !tbaa !80
  ret ptr %6
}

; Function Attrs: mustprogress nounwind uwtable
define available_externally noundef i64 @_ZNKSt7__cxx1112basic_stringIcSt11char_traitsIcESaIcEE4sizeEv(ptr noundef nonnull align 8 dereferenceable(32) %0) #0 align 2 {
  %2 = alloca ptr, align 8
  store ptr %0, ptr %2, align 8, !tbaa !8
  %3 = load ptr, ptr %2, align 8
  %4 = getelementptr inbounds nuw %"class.std::__cxx11::basic_string", ptr %3, i32 0, i32 1
  %5 = load i64, ptr %4, align 8, !tbaa !46
  ret i64 %5
}

; Function Attrs: mustprogress nounwind uwtable
define available_externally noundef ptr @_ZNKSt7__cxx1112basic_stringIcSt11char_traitsIcESaIcEE4dataEv(ptr noundef nonnull align 8 dereferenceable(32) %0) #0 align 2 {
  %2 = alloca ptr, align 8
  store ptr %0, ptr %2, align 8, !tbaa !8
  %3 = load ptr, ptr %2, align 8
  %4 = call noundef ptr @_ZNKSt7__cxx1112basic_stringIcSt11char_traitsIcESaIcEE7_M_dataEv(ptr noundef nonnull align 8 dereferenceable(32) %3)
  ret ptr %4
}

; Function Attrs: mustprogress nounwind uwtable
define available_externally void @_ZN4base16BasicStringPieceINSt7__cxx1112basic_stringIcSt11char_traitsIcESaIcEEEEC2ERKS6_(ptr noundef nonnull align 8 dereferenceable(16) %0, ptr noundef nonnull align 8 dereferenceable(32) %1) unnamed_addr #0 align 2 {
  %3 = alloca ptr, align 8
  %4 = alloca ptr, align 8
  store ptr %0, ptr %3, align 8, !tbaa !12
  store ptr %1, ptr %4, align 8, !tbaa !8
  %5 = load ptr, ptr %3, align 8
  %6 = getelementptr inbounds nuw %"class.base::BasicStringPiece", ptr %5, i32 0, i32 0
  %7 = load ptr, ptr %4, align 8, !tbaa !8
  %8 = call noundef ptr @_ZNKSt7__cxx1112basic_stringIcSt11char_traitsIcESaIcEE4dataEv(ptr noundef nonnull align 8 dereferenceable(32) %7) #15
  store ptr %8, ptr %6, align 8, !tbaa !27
  %9 = getelementptr inbounds nuw %"class.base::BasicStringPiece", ptr %5, i32 0, i32 1
  %10 = load ptr, ptr %4, align 8, !tbaa !8
  %11 = call noundef i64 @_ZNKSt7__cxx1112basic_stringIcSt11char_traitsIcESaIcEE4sizeEv(ptr noundef nonnull align 8 dereferenceable(32) %10) #15
  store i64 %11, ptr %9, align 8, !tbaa !29
  ret void
}

; Function Attrs: mustprogress uwtable
define void @_ZNK4base8FilePath16GetSizeForPickleEPNS_11PickleSizerE(ptr noundef nonnull align 8 dereferenceable(32) %0, ptr noundef %1) #1 align 2 {
  %3 = alloca ptr, align 8
  %4 = alloca ptr, align 8
  %5 = alloca %"class.base::BasicStringPiece", align 8
  store ptr %0, ptr %3, align 8, !tbaa !3
  store ptr %1, ptr %4, align 8, !tbaa !62
  %6 = load ptr, ptr %3, align 8
  %7 = load ptr, ptr %4, align 8, !tbaa !62
  call void @llvm.lifetime.start.p0(i64 16, ptr %5) #15
  %8 = getelementptr inbounds nuw %"class.base::FilePath", ptr %6, i32 0, i32 0
  call void @_ZN4base16BasicStringPieceINSt7__cxx1112basic_stringIcSt11char_traitsIcESaIcEEEEC2ERKS6_(ptr noundef nonnull align 8 dereferenceable(16) %5, ptr noundef nonnull align 8 dereferenceable(32) %8)
  call void @_ZN4base11PickleSizer9AddStringERKNS_16BasicStringPieceINSt7__cxx1112basic_stringIcSt11char_traitsIcESaIcEEEEE(ptr noundef nonnull align 8 dereferenceable(8) %7, ptr noundef nonnull align 8 dereferenceable(16) %5)
  call void @llvm.lifetime.end.p0(i64 16, ptr %5) #15
  ret void
}