; Function Attrs: mustprogress uwtable
define void @_ZNK4base8FilePath16GetSizeForPickleEPNS_11PickleSizerE(ptr noundef nonnull readonly align 8 captures(none) dereferenceable(32) %0, ptr noundef nonnull %1) local_unnamed_addr #1 align 2 {
  %3 = alloca %"class.base::BasicStringPiece", align 8
  call void @llvm.lifetime.start.p0(i64 16, ptr nonnull %3) #22
  %4 = load ptr, ptr %0, align 8, !tbaa !13
  store ptr %4, ptr %3, align 8, !tbaa !54
  %5 = getelementptr inbounds nuw i8, ptr %3, i64 8
  %6 = getelementptr inbounds nuw i8, ptr %0, i64 8
  %7 = load i64, ptr %6, align 8, !tbaa !9
  store i64 %7, ptr %5, align 8, !tbaa !37
  call void @_ZN4base11PickleSizer9AddStringERKNS_16BasicStringPieceINSt7__cxx1112basic_stringIcSt11char_traitsIcESaIcEEEEE(ptr noundef nonnull align 8 dereferenceable(8) %1, ptr noundef nonnull align 8 dereferenceable(16) %3)
  call void @llvm.lifetime.end.p0(i64 16, ptr nonnull %3) #22
  ret void
}